target datalayout = "e-m:e-p270:32:32-p271:32:32-p272:64:64-i64:64-i128:128-f80:128-n8:16:32:64-S128"
target triple = "x86_64-pc-linux-gnu"

%struct.jv = type { i8, i8, i16, i32, %union.anon }
%union.anon = type { ptr }
%struct.jv_refcnt = type { i32 }

; Function Attrs: nounwind uwtable
define dso_local i32 @jv_get_refcnt(i64 %0, ptr %1) #0 {
  %3 = alloca i32, align 4
  %4 = alloca %struct.jv, align 8
  %5 = getelementptr inbounds nuw { i64, ptr }, ptr %4, i32 0, i32 0
  store i64 %0, ptr %5, align 8
  %6 = getelementptr inbounds nuw { i64, ptr }, ptr %4, i32 0, i32 1
  store ptr %1, ptr %6, align 8
  %7 = getelementptr inbounds nuw %struct.jv, ptr %4, i32 0, i32 0
  %8 = load i8, ptr %7, align 8, !tbaa !4
  %9 = zext i8 %8 to i32
  %10 = and i32 %9, 128
  %11 = icmp ne i32 %10, 0
  br i1 %11, label %12, label %17

12:                                               ; preds = %2
  %13 = getelementptr inbounds nuw %struct.jv, ptr %4, i32 0, i32 4
  %14 = load ptr, ptr %13, align 8, !tbaa !12
  %15 = getelementptr inbounds nuw %struct.jv_refcnt, ptr %14, i32 0, i32 0
  %16 = load i32, ptr %15, align 4, !tbaa !68
  store i32 %16, ptr %3, align 4
  br label %18

17:                                               ; preds = %2
  store i32 1, ptr %3, align 4
  br label %18

18:                                               ; preds = %17, %12
  %19 = load i32, ptr %3, align 4
  ret i32 %19
}