; Function Attrs: mustprogress nofree norecurse nosync nounwind willreturn memory(argmem: read) uwtable
define dso_local i32 @jv_get_refcnt(i64 %0, ptr readonly captures(none) %1) local_unnamed_addr #11 {
  %3 = and i64 %0, 128
  %.not = icmp eq i64 %3, 0
  br i1 %.not, label %6, label %4

4:                                                ; preds = %2
  %5 = load i32, ptr %1, align 4, !tbaa !9
  br label %6

6:                                                ; preds = %2, %4
  %.0 = phi i32 [ %5, %4 ], [ 1, %2 ]
  ret i32 %.0
}